; Function Attrs: mustprogress uwtable
define hidden noundef nonnull ptr @_ZN17duckdb_libpgquery18core_yy_scan_bytesEPKcmPv(ptr noundef readonly captures(none) %0, i64 noundef %1, ptr noundef captures(none) %2) local_unnamed_addr #0 {
  %4 = add i64 %1, 2
  %5 = tail call noundef ptr @_ZN17duckdb_libpgquery6pallocEm(i64 noundef %4)
  %.not = icmp eq ptr %5, null
  br i1 %.not, label %8, label %.preheader

.preheader:                                       ; preds = %3
  %.not29 = icmp eq i64 %1, 0
  br i1 %.not29, label %._crit_edge.thread, label %.lr.ph

._crit_edge.thread:                               ; preds = %.preheader
  %6 = getelementptr i8, ptr %5, i64 %1
  %7 = getelementptr i8, ptr %6, i64 1
  store i8 0, ptr %7, align 1, !tbaa !32
  store i8 0, ptr %6, align 1, !tbaa !32
  br label %16

8:                                                ; preds = %3
  tail call fastcc void @_ZN17duckdb_libpgqueryL14yy_fatal_errorEPKcPv(ptr noundef nonnull @.str.29) #20
  unreachable

.lr.ph:                                           ; preds = %.preheader, %.lr.ph
  %.028 = phi i64 [ %12, %.lr.ph ], [ 0, %.preheader ]
  %9 = getelementptr inbounds nuw i8, ptr %0, i64 %.028
  %10 = load i8, ptr %9, align 1, !tbaa !32
  %11 = getelementptr inbounds nuw i8, ptr %5, i64 %.028
  store i8 %10, ptr %11, align 1, !tbaa !32
  %12 = add nuw i64 %.028, 1
  %exitcond.not = icmp eq i64 %12, %1
  br i1 %exitcond.not, label %._crit_edge, label %.lr.ph, !llvm.loop !91

._crit_edge:                                      ; preds = %.lr.ph
  %13 = getelementptr i8, ptr %5, i64 %1
  %14 = getelementptr i8, ptr %13, i64 1
  store i8 0, ptr %14, align 1, !tbaa !32
  store i8 0, ptr %13, align 1, !tbaa !32
  %15 = icmp ugt i64 %1, -3
  br i1 %15, label %19, label %16

16:                                               ; preds = %._crit_edge, %._crit_edge.thread
  %17 = tail call noundef ptr @_ZN17duckdb_libpgquery6pallocEm(i64 noundef 72)
  %.not27.i = icmp eq ptr %17, null
  br i1 %.not27.i, label %18, label %20

18:                                               ; preds = %16
  tail call fastcc void @_ZN17duckdb_libpgqueryL14yy_fatal_errorEPKcPv(ptr noundef nonnull @.str.28) #20
  unreachable

19:                                               ; preds = %._crit_edge
  tail call fastcc void @_ZN17duckdb_libpgqueryL14yy_fatal_errorEPKcPv(ptr noundef nonnull @.str.30) #20
  unreachable

20:                                               ; preds = %16
  %sext.i = shl i64 %1, 32
  %21 = ashr exact i64 %sext.i, 32
  %22 = getelementptr inbounds nuw i8, ptr %17, i64 24
  store i64 %21, ptr %22, align 8, !tbaa !77
  %23 = getelementptr inbounds nuw i8, ptr %17, i64 8
  store ptr %5, ptr %23, align 8, !tbaa !71
  %24 = getelementptr inbounds nuw i8, ptr %17, i64 16
  store ptr %5, ptr %24, align 8, !tbaa !28
  %25 = getelementptr inbounds nuw i8, ptr %17, i64 40
  store i32 0, ptr %25, align 8, !tbaa !78
  store ptr null, ptr %17, align 8, !tbaa !31
  %26 = getelementptr inbounds nuw i8, ptr %17, i64 32
  store i64 %21, ptr %26, align 8, !tbaa !25
  %27 = getelementptr inbounds nuw i8, ptr %17, i64 44
  store i32 0, ptr %27, align 4, !tbaa !80
  %28 = getelementptr inbounds nuw i8, ptr %17, i64 48
  store i32 1, ptr %28, align 8, !tbaa !84
  %29 = getelementptr inbounds nuw i8, ptr %17, i64 60
  store i32 0, ptr %29, align 4, !tbaa !75
  %30 = getelementptr inbounds nuw i8, ptr %17, i64 64
  store i32 0, ptr %30, align 8, !tbaa !70
  tail call void @_ZN17duckdb_libpgquery24core_yy_switch_to_bufferEPNS_15yy_buffer_stateEPv(ptr noundef nonnull %17, ptr noundef %2)
  store i32 1, ptr %25, align 8, !tbaa !78
  ret ptr %17
}